; ModuleID = '15/593.c'
source_filename = "15/593.c"
target datalayout = "e-m:e-p270:32:32-p271:32:32-p272:64:64-i64:64-f80:128-n8:16:32:64-S128"
target triple = "x86_64-pc-linux-gnu"

@.str = private unnamed_addr constant [3 x i8] c"%d\00", align 1
@a = common dso_local global [1000 x [1000 x i32]] zeroinitializer, align 16
@.str.1 = private unnamed_addr constant [4 x i8] c"%d\0A\00", align 1

; Function Attrs: noinline nounwind uwtable
define dso_local i32 @main() #0 {
  %1 = alloca i32, align 4
  %2 = alloca i32, align 4
  %3 = alloca i32, align 4
  %4 = alloca i32, align 4
  %5 = alloca i32, align 4
  %6 = alloca i32, align 4
  %7 = alloca i32, align 4
  %8 = alloca i32, align 4
  %9 = alloca i32, align 4
  store i32 0, i32* %1, align 4
  %10 = call i32 (i8*, ...) @__isoc99_scanf(i8* getelementptr inbounds ([3 x i8], [3 x i8]* @.str, i64 0, i64 0), i32* %2)
  store i32 0, i32* %3, align 4
  br label %11

11:                                               ; preds = %32, %0
  %12 = load i32, i32* %3, align 4
  %13 = load i32, i32* %2, align 4
  %14 = icmp slt i32 %12, %13
  br i1 %14, label %15, label %35

15:                                               ; preds = %11
  store i32 0, i32* %4, align 4
  br label %16

16:                                               ; preds = %28, %15
  %17 = load i32, i32* %4, align 4
  %18 = load i32, i32* %2, align 4
  %19 = icmp slt i32 %17, %18
  br i1 %19, label %20, label %31

20:                                               ; preds = %16
  %21 = load i32, i32* %3, align 4
  %22 = sext i32 %21 to i64
  %23 = getelementptr inbounds [1000 x [1000 x i32]], [1000 x [1000 x i32]]* @a, i64 0, i64 %22
  %24 = load i32, i32* %4, align 4
  %25 = sext i32 %24 to i64
  %26 = getelementptr inbounds [1000 x i32], [1000 x i32]* %23, i64 0, i64 %25
  %27 = call i32 (i8*, ...) @__isoc99_scanf(i8* getelementptr inbounds ([3 x i8], [3 x i8]* @.str, i64 0, i64 0), i32* %26)
  br label %28

28:                                               ; preds = %20
  %29 = load i32, i32* %4, align 4
  %30 = add nsw i32 %29, 1
  store i32 %30, i32* %4, align 4
  br label %16

31:                                               ; preds = %16
  br label %32

32:                                               ; preds = %31
  %33 = load i32, i32* %3, align 4
  %34 = add nsw i32 %33, 1
  store i32 %34, i32* %3, align 4
  br label %11

35:                                               ; preds = %11
  store i32 0, i32* %5, align 4
  store i32 0, i32* %6, align 4
  store i32 0, i32* %7, align 4
  store i32 0, i32* %8, align 4
  store i32 0, i32* %3, align 4
  br label %36

36:                                               ; preds = %72, %35
  %37 = load i32, i32* %3, align 4
  %38 = load i32, i32* %2, align 4
  %39 = icmp slt i32 %37, %38
  br i1 %39, label %40, label %75

40:                                               ; preds = %36
  store i32 0, i32* %4, align 4
  br label %41

41:                                               ; preds = %58, %40
  %42 = load i32, i32* %4, align 4
  %43 = load i32, i32* %2, align 4
  %44 = icmp slt i32 %42, %43
  br i1 %44, label %45, label %61

45:                                               ; preds = %41
  %46 = load i32, i32* %3, align 4
  %47 = sext i32 %46 to i64
  %48 = getelementptr inbounds [1000 x [1000 x i32]], [1000 x [1000 x i32]]* @a, i64 0, i64 %47
  %49 = load i32, i32* %4, align 4
  %50 = sext i32 %49 to i64
  %51 = getelementptr inbounds [1000 x i32], [1000 x i32]* %48, i64 0, i64 %50
  %52 = load i32, i32* %51, align 4
  %53 = icmp eq i32 %52, 0
  br i1 %53, label %54, label %57

54:                                               ; preds = %45
  %55 = load i32, i32* %3, align 4
  store i32 %55, i32* %5, align 4
  %56 = load i32, i32* %4, align 4
  store i32 %56, i32* %7, align 4
  br label %61

57:                                               ; preds = %45
  br label %58

58:                                               ; preds = %57
  %59 = load i32, i32* %4, align 4
  %60 = add nsw i32 %59, 1
  store i32 %60, i32* %4, align 4
  br label %41

61:                                               ; preds = %54, %41
  %62 = load i32, i32* %5, align 4
  %63 = sext i32 %62 to i64
  %64 = getelementptr inbounds [1000 x [1000 x i32]], [1000 x [1000 x i32]]* @a, i64 0, i64 %63
  %65 = load i32, i32* %7, align 4
  %66 = sext i32 %65 to i64
  %67 = getelementptr inbounds [1000 x i32], [1000 x i32]* %64, i64 0, i64 %66
  %68 = load i32, i32* %67, align 4
  %69 = icmp eq i32 %68, 0
  br i1 %69, label %70, label %71

70:                                               ; preds = %61
  br label %75

71:                                               ; preds = %61
  br label %72

72:                                               ; preds = %71
  %73 = load i32, i32* %3, align 4
  %74 = add nsw i32 %73, 1
  store i32 %74, i32* %3, align 4
  br label %36

75:                                               ; preds = %70, %36
  %76 = load i32, i32* %5, align 4
  store i32 %76, i32* %3, align 4
  br label %77

77:                                               ; preds = %94, %75
  %78 = load i32, i32* %3, align 4
  %79 = load i32, i32* %2, align 4
  %80 = icmp slt i32 %78, %79
  br i1 %80, label %81, label %97

81:                                               ; preds = %77
  %82 = load i32, i32* %3, align 4
  %83 = sext i32 %82 to i64
  %84 = getelementptr inbounds [1000 x [1000 x i32]], [1000 x [1000 x i32]]* @a, i64 0, i64 %83
  %85 = load i32, i32* %7, align 4
  %86 = sext i32 %85 to i64
  %87 = getelementptr inbounds [1000 x i32], [1000 x i32]* %84, i64 0, i64 %86
  %88 = load i32, i32* %87, align 4
  %89 = icmp eq i32 %88, 255
  br i1 %89, label %90, label %93

90:                                               ; preds = %81
  %91 = load i32, i32* %3, align 4
  %92 = sub nsw i32 %91, 1
  store i32 %92, i32* %6, align 4
  br label %97

93:                                               ; preds = %81
  br label %94

94:                                               ; preds = %93
  %95 = load i32, i32* %3, align 4
  %96 = add nsw i32 %95, 1
  store i32 %96, i32* %3, align 4
  br label %77

97:                                               ; preds = %90, %77
  %98 = load i32, i32* %6, align 4
  store i32 %98, i32* %4, align 4
  br label %99

99:                                               ; preds = %116, %97
  %100 = load i32, i32* %4, align 4
  %101 = load i32, i32* %2, align 4
  %102 = icmp slt i32 %100, %101
  br i1 %102, label %103, label %119

103:                                              ; preds = %99
  %104 = load i32, i32* %6, align 4
  %105 = sext i32 %104 to i64
  %106 = getelementptr inbounds [1000 x [1000 x i32]], [1000 x [1000 x i32]]* @a, i64 0, i64 %105
  %107 = load i32, i32* %4, align 4
  %108 = sext i32 %107 to i64
  %109 = getelementptr inbounds [1000 x i32], [1000 x i32]* %106, i64 0, i64 %108
  %110 = load i32, i32* %109, align 4
  %111 = icmp eq i32 %110, 255
  br i1 %111, label %112, label %115

112:                                              ; preds = %103
  %113 = load i32, i32* %4, align 4
  %114 = sub nsw i32 %113, 1
  store i32 %114, i32* %8, align 4
  br label %119

115:                                              ; preds = %103
  br label %116

116:                                              ; preds = %115
  %117 = load i32, i32* %4, align 4
  %118 = add nsw i32 %117, 1
  store i32 %118, i32* %4, align 4
  br label %99

119:                                              ; preds = %112, %99
  store i32 0, i32* %9, align 4
  %120 = load i32, i32* %5, align 4
  store i32 %120, i32* %3, align 4
  br label %121

121:                                              ; preds = %148, %119
  %122 = load i32, i32* %3, align 4
  %123 = load i32, i32* %6, align 4
  %124 = icmp slt i32 %122, %123
  br i1 %124, label %125, label %151

125:                                              ; preds = %121
  %126 = load i32, i32* %7, align 4
  store i32 %126, i32* %4, align 4
  br label %127

127:                                              ; preds = %144, %125
  %128 = load i32, i32* %4, align 4
  %129 = load i32, i32* %8, align 4
  %130 = icmp slt i32 %128, %129
  br i1 %130, label %131, label %147

131:                                              ; preds = %127
  %132 = load i32, i32* %3, align 4
  %133 = sext i32 %132 to i64
  %134 = getelementptr inbounds [1000 x [1000 x i32]], [1000 x [1000 x i32]]* @a, i64 0, i64 %133
  %135 = load i32, i32* %4, align 4
  %136 = sext i32 %135 to i64
  %137 = getelementptr inbounds [1000 x i32], [1000 x i32]* %134, i64 0, i64 %136
  %138 = load i32, i32* %137, align 4
  %139 = icmp eq i32 %138, 255
  br i1 %139, label %140, label %143

140:                                              ; preds = %131
  %141 = load i32, i32* %9, align 4
  %142 = add nsw i32 %141, 1
  store i32 %142, i32* %9, align 4
  br label %143

143:                                              ; preds = %140, %131
  br label %144

144:                                              ; preds = %143
  %145 = load i32, i32* %4, align 4
  %146 = add nsw i32 %145, 1
  store i32 %146, i32* %4, align 4
  br label %127

147:                                              ; preds = %127
  br label %148

148:                                              ; preds = %147
  %149 = load i32, i32* %3, align 4
  %150 = add nsw i32 %149, 1
  store i32 %150, i32* %3, align 4
  br label %121

151:                                              ; preds = %121
  %152 = load i32, i32* %9, align 4
  %153 = call i32 (i8*, ...) @printf(i8* getelementptr inbounds ([4 x i8], [4 x i8]* @.str.1, i64 0, i64 0), i32 %152)
  ret i32 0
}

declare dso_local i32 @__isoc99_scanf(i8*, ...) #1

declare dso_local i32 @printf(i8*, ...) #1


!llvm.module.flags = !{!0}
!llvm.ident = !{!1}

!0 = !{i32 1, !"wchar_size", i32 4}
!1 = !{!"clang version 10.0.0-4ubuntu1 "}
